target datalayout = "e-m:e-p270:32:32-p271:32:32-p272:64:64-i64:64-i128:128-f80:128-n8:16:32:64-S128"
target triple = "x86_64-pc-linux-gnu"

%struct.mbedtls_pk_context = type { ptr, ptr }
%struct.mbedtls_pem_context = type { ptr, i64, ptr }

@.str.9 = private unnamed_addr constant [31 x i8] c"-----BEGIN RSA PUBLIC KEY-----\00", align 1
@.str.10 = private unnamed_addr constant [29 x i8] c"-----END RSA PUBLIC KEY-----\00", align 1
@.str.11 = private unnamed_addr constant [27 x i8] c"-----BEGIN PUBLIC KEY-----\00", align 1
@.str.12 = private unnamed_addr constant [25 x i8] c"-----END PUBLIC KEY-----\00", align 1

; Function Attrs: inlinehint nounwind uwtable
define internal ptr @mbedtls_pk_rsa(ptr %0, ptr %1) #3 {
  %3 = alloca ptr, align 8
  %4 = alloca %struct.mbedtls_pk_context, align 8
  %5 = getelementptr inbounds nuw { ptr, ptr }, ptr %4, i32 0, i32 0
  store ptr %0, ptr %5, align 8
  %6 = getelementptr inbounds nuw { ptr, ptr }, ptr %4, i32 0, i32 1
  store ptr %1, ptr %6, align 8
  %7 = call i32 @mbedtls_pk_get_type(ptr noundef %4)
  switch i32 %7, label %11 [
    i32 1, label %8
  ]

8:                                                ; preds = %2
  %9 = getelementptr inbounds nuw %struct.mbedtls_pk_context, ptr %4, i32 0, i32 1
  %10 = load ptr, ptr %9, align 8, !tbaa !25
  store ptr %10, ptr %3, align 8
  br label %12

11:                                               ; preds = %2
  store ptr null, ptr %3, align 8
  br label %12

12:                                               ; preds = %11, %8
  %13 = load ptr, ptr %3, align 8
  ret ptr %13
}

; Function Attrs: nounwind uwtable
define hidden i32 @mbedtls_pk_parse_public_key(ptr noundef %0, ptr noundef %1, i64 noundef %2) #0 {
  %4 = alloca i32, align 4
  %5 = alloca ptr, align 8
  %6 = alloca ptr, align 8
  %7 = alloca i64, align 8
  %8 = alloca i32, align 4
  %9 = alloca ptr, align 8
  %10 = alloca ptr, align 8
  %11 = alloca i64, align 8
  %12 = alloca %struct.mbedtls_pem_context, align 8
  %13 = alloca i32, align 4
  store ptr %0, ptr %5, align 8, !tbaa !11
  store ptr %1, ptr %6, align 8, !tbaa !9
  store i64 %2, ptr %7, align 8, !tbaa !15
  call void @llvm.lifetime.start.p0(i64 4, ptr %8) #9
  store i32 -110, ptr %8, align 4, !tbaa !13
  call void @llvm.lifetime.start.p0(i64 8, ptr %9) #9
  call void @llvm.lifetime.start.p0(i64 8, ptr %10) #9
  call void @llvm.lifetime.start.p0(i64 8, ptr %11) #9
  call void @llvm.lifetime.start.p0(i64 24, ptr %12) #9
  %14 = load i64, ptr %7, align 8, !tbaa !15
  %15 = icmp eq i64 %14, 0
  br i1 %15, label %16, label %17

16:                                               ; preds = %3
  store i32 -15616, ptr %4, align 4
  store i32 1, ptr %13, align 4
  br label %138

17:                                               ; preds = %3
  call void @mbedtls_pem_init(ptr noundef %12)
  %18 = load ptr, ptr %6, align 8, !tbaa !9
  %19 = load i64, ptr %7, align 8, !tbaa !15
  %20 = sub i64 %19, 1
  %21 = getelementptr inbounds nuw i8, ptr %18, i64 %20
  %22 = load i8, ptr %21, align 1, !tbaa !27
  %23 = zext i8 %22 to i32
  %24 = icmp ne i32 %23, 0
  br i1 %24, label %25, label %26

25:                                               ; preds = %17
  store i32 -4224, ptr %8, align 4, !tbaa !13
  br label %29

26:                                               ; preds = %17
  %27 = load ptr, ptr %6, align 8, !tbaa !9
  %28 = call i32 @mbedtls_pem_read_buffer(ptr noundef %12, ptr noundef @.str.9, ptr noundef @.str.10, ptr noundef %27, ptr noundef null, i64 noundef 0, ptr noundef %11)
  store i32 %28, ptr %8, align 4, !tbaa !13
  br label %29

29:                                               ; preds = %26, %25
  %30 = load i32, ptr %8, align 4, !tbaa !13
  %31 = icmp eq i32 %30, 0
  br i1 %31, label %32, label %61

32:                                               ; preds = %29
  %33 = getelementptr inbounds nuw %struct.mbedtls_pem_context, ptr %12, i32 0, i32 0
  %34 = load ptr, ptr %33, align 8, !tbaa !28
  store ptr %34, ptr %9, align 8, !tbaa !9
  %35 = call ptr @mbedtls_pk_info_from_type(i32 noundef 1)
  store ptr %35, ptr %10, align 8, !tbaa !17
  %36 = icmp eq ptr %35, null
  br i1 %36, label %37, label %38

37:                                               ; preds = %32
  call void @mbedtls_pem_free(ptr noundef %12)
  store i32 -15488, ptr %4, align 4
  store i32 1, ptr %13, align 4
  br label %138

38:                                               ; preds = %32
  %39 = load ptr, ptr %5, align 8, !tbaa !11
  %40 = load ptr, ptr %10, align 8, !tbaa !17
  %41 = call i32 @mbedtls_pk_setup(ptr noundef %39, ptr noundef %40)
  store i32 %41, ptr %8, align 4, !tbaa !13
  %42 = icmp ne i32 %41, 0
  br i1 %42, label %43, label %45

43:                                               ; preds = %38
  call void @mbedtls_pem_free(ptr noundef %12)
  %44 = load i32, ptr %8, align 4, !tbaa !13
  store i32 %44, ptr %4, align 4
  store i32 1, ptr %13, align 4
  br label %138

45:                                               ; preds = %38
  %46 = load ptr, ptr %5, align 8, !tbaa !11
  %47 = getelementptr inbounds nuw { ptr, ptr }, ptr %46, i32 0, i32 0
  %48 = load ptr, ptr %47, align 8
  %49 = getelementptr inbounds nuw { ptr, ptr }, ptr %46, i32 0, i32 1
  %50 = load ptr, ptr %49, align 8
  %51 = call ptr @mbedtls_pk_rsa(ptr %48, ptr %50)
  %52 = load ptr, ptr %9, align 8, !tbaa !9
  %53 = getelementptr inbounds nuw %struct.mbedtls_pem_context, ptr %12, i32 0, i32 1
  %54 = load i64, ptr %53, align 8, !tbaa !30
  %55 = call i32 @mbedtls_rsa_parse_pubkey(ptr noundef %51, ptr noundef %52, i64 noundef %54)
  store i32 %55, ptr %8, align 4, !tbaa !13
  %56 = icmp ne i32 %55, 0
  br i1 %56, label %57, label %59

57:                                               ; preds = %45
  %58 = load ptr, ptr %5, align 8, !tbaa !11
  call void @mbedtls_pk_free(ptr noundef %58)
  br label %59

59:                                               ; preds = %57, %45
  call void @mbedtls_pem_free(ptr noundef %12)
  %60 = load i32, ptr %8, align 4, !tbaa !13
  store i32 %60, ptr %4, align 4
  store i32 1, ptr %13, align 4
  br label %138

61:                                               ; preds = %29
  %62 = load i32, ptr %8, align 4, !tbaa !13
  %63 = icmp ne i32 %62, -4224
  br i1 %63, label %64, label %66

64:                                               ; preds = %61
  call void @mbedtls_pem_free(ptr noundef %12)
  %65 = load i32, ptr %8, align 4, !tbaa !13
  store i32 %65, ptr %4, align 4
  store i32 1, ptr %13, align 4
  br label %138

66:                                               ; preds = %61
  br label %67

67:                                               ; preds = %66
  %68 = load ptr, ptr %6, align 8, !tbaa !9
  %69 = load i64, ptr %7, align 8, !tbaa !15
  %70 = sub i64 %69, 1
  %71 = getelementptr inbounds nuw i8, ptr %68, i64 %70
  %72 = load i8, ptr %71, align 1, !tbaa !27
  %73 = zext i8 %72 to i32
  %74 = icmp ne i32 %73, 0
  br i1 %74, label %75, label %76

75:                                               ; preds = %67
  store i32 -4224, ptr %8, align 4, !tbaa !13
  br label %79

76:                                               ; preds = %67
  %77 = load ptr, ptr %6, align 8, !tbaa !9
  %78 = call i32 @mbedtls_pem_read_buffer(ptr noundef %12, ptr noundef @.str.11, ptr noundef @.str.12, ptr noundef %77, ptr noundef null, i64 noundef 0, ptr noundef %11)
  store i32 %78, ptr %8, align 4, !tbaa !13
  br label %79

79:                                               ; preds = %76, %75
  %80 = load i32, ptr %8, align 4, !tbaa !13
  %81 = icmp eq i32 %80, 0
  br i1 %81, label %82, label %92

82:                                               ; preds = %79
  %83 = getelementptr inbounds nuw %struct.mbedtls_pem_context, ptr %12, i32 0, i32 0
  %84 = load ptr, ptr %83, align 8, !tbaa !28
  store ptr %84, ptr %9, align 8, !tbaa !9
  %85 = load ptr, ptr %9, align 8, !tbaa !9
  %86 = getelementptr inbounds nuw %struct.mbedtls_pem_context, ptr %12, i32 0, i32 1
  %87 = load i64, ptr %86, align 8, !tbaa !30
  %88 = getelementptr inbounds nuw i8, ptr %85, i64 %87
  %89 = load ptr, ptr %5, align 8, !tbaa !11
  %90 = call i32 @mbedtls_pk_parse_subpubkey(ptr noundef %9, ptr noundef %88, ptr noundef %89)
  store i32 %90, ptr %8, align 4, !tbaa !13
  call void @mbedtls_pem_free(ptr noundef %12)
  %91 = load i32, ptr %8, align 4, !tbaa !13
  store i32 %91, ptr %4, align 4
  store i32 1, ptr %13, align 4
  br label %138

92:                                               ; preds = %79
  %93 = load i32, ptr %8, align 4, !tbaa !13
  %94 = icmp ne i32 %93, -4224
  br i1 %94, label %95, label %97

95:                                               ; preds = %92
  call void @mbedtls_pem_free(ptr noundef %12)
  %96 = load i32, ptr %8, align 4, !tbaa !13
  store i32 %96, ptr %4, align 4
  store i32 1, ptr %13, align 4
  br label %138

97:                                               ; preds = %92
  br label %98

98:                                               ; preds = %97
  call void @mbedtls_pem_free(ptr noundef %12)
  %99 = call ptr @mbedtls_pk_info_from_type(i32 noundef 1)
  store ptr %99, ptr %10, align 8, !tbaa !17
  %100 = icmp eq ptr %99, null
  br i1 %100, label %101, label %102

101:                                              ; preds = %98
  store i32 -15488, ptr %4, align 4
  store i32 1, ptr %13, align 4
  br label %138

102:                                              ; preds = %98
  %103 = load ptr, ptr %5, align 8, !tbaa !11
  %104 = load ptr, ptr %10, align 8, !tbaa !17
  %105 = call i32 @mbedtls_pk_setup(ptr noundef %103, ptr noundef %104)
  store i32 %105, ptr %8, align 4, !tbaa !13
  %106 = icmp ne i32 %105, 0
  br i1 %106, label %107, label %109

107:                                              ; preds = %102
  %108 = load i32, ptr %8, align 4, !tbaa !13
  store i32 %108, ptr %4, align 4
  store i32 1, ptr %13, align 4
  br label %138

109:                                              ; preds = %102
  %110 = load ptr, ptr %6, align 8, !tbaa !9
  store ptr %110, ptr %9, align 8, !tbaa !9
  %111 = load ptr, ptr %5, align 8, !tbaa !11
  %112 = getelementptr inbounds nuw { ptr, ptr }, ptr %111, i32 0, i32 0
  %113 = load ptr, ptr %112, align 8
  %114 = getelementptr inbounds nuw { ptr, ptr }, ptr %111, i32 0, i32 1
  %115 = load ptr, ptr %114, align 8
  %116 = call ptr @mbedtls_pk_rsa(ptr %113, ptr %115)
  %117 = load ptr, ptr %9, align 8, !tbaa !9
  %118 = load i64, ptr %7, align 8, !tbaa !15
  %119 = call i32 @mbedtls_rsa_parse_pubkey(ptr noundef %116, ptr noundef %117, i64 noundef %118)
  store i32 %119, ptr %8, align 4, !tbaa !13
  %120 = load i32, ptr %8, align 4, !tbaa !13
  %121 = icmp eq i32 %120, 0
  br i1 %121, label %122, label %124

122:                                              ; preds = %109
  %123 = load i32, ptr %8, align 4, !tbaa !13
  store i32 %123, ptr %4, align 4
  store i32 1, ptr %13, align 4
  br label %138

124:                                              ; preds = %109
  %125 = load ptr, ptr %5, align 8, !tbaa !11
  call void @mbedtls_pk_free(ptr noundef %125)
  %126 = load i32, ptr %8, align 4, !tbaa !13
  %127 = icmp ne i32 %126, -98
  br i1 %127, label %128, label %130

128:                                              ; preds = %124
  %129 = load i32, ptr %8, align 4, !tbaa !13
  store i32 %129, ptr %4, align 4
  store i32 1, ptr %13, align 4
  br label %138

130:                                              ; preds = %124
  %131 = load ptr, ptr %6, align 8, !tbaa !9
  store ptr %131, ptr %9, align 8, !tbaa !9
  %132 = load ptr, ptr %9, align 8, !tbaa !9
  %133 = load i64, ptr %7, align 8, !tbaa !15
  %134 = getelementptr inbounds nuw i8, ptr %132, i64 %133
  %135 = load ptr, ptr %5, align 8, !tbaa !11
  %136 = call i32 @mbedtls_pk_parse_subpubkey(ptr noundef %9, ptr noundef %134, ptr noundef %135)
  store i32 %136, ptr %8, align 4, !tbaa !13
  %137 = load i32, ptr %8, align 4, !tbaa !13
  store i32 %137, ptr %4, align 4
  store i32 1, ptr %13, align 4
  br label %138

138:                                              ; preds = %130, %128, %122, %107, %101, %95, %82, %64, %59, %43, %37, %16
  call void @llvm.lifetime.end.p0(i64 24, ptr %12) #9
  call void @llvm.lifetime.end.p0(i64 8, ptr %11) #9
  call void @llvm.lifetime.end.p0(i64 8, ptr %10) #9
  call void @llvm.lifetime.end.p0(i64 8, ptr %9) #9
  call void @llvm.lifetime.end.p0(i64 4, ptr %8) #9
  %139 = load i32, ptr %4, align 4
  ret i32 %139
}