; Function Attrs: nounwind uwtable
define hidden i32 @mbedtls_pk_parse_public_key(ptr noundef %0, ptr noundef %1, i64 noundef %2) local_unnamed_addr #0 {
  %4 = alloca %struct.mbedtls_pk_context, align 8
  %5 = alloca %struct.mbedtls_pk_context, align 8
  %6 = alloca ptr, align 8
  %7 = alloca i64, align 8
  %8 = alloca %struct.mbedtls_pem_context, align 8
  call void @llvm.lifetime.start.p0(i64 8, ptr nonnull %6) #9
  call void @llvm.lifetime.start.p0(i64 8, ptr nonnull %7) #9
  call void @llvm.lifetime.start.p0(i64 24, ptr nonnull %8) #9
  %9 = icmp eq i64 %2, 0
  br i1 %9, label %65, label %10

10:                                               ; preds = %3
  call void @mbedtls_pem_init(ptr noundef nonnull %8) #9
  %11 = getelementptr i8, ptr %1, i64 %2
  %12 = getelementptr i8, ptr %11, i64 -1
  %13 = load i8, ptr %12, align 1, !tbaa !23
  %.not = icmp eq i8 %13, 0
  br i1 %.not, label %14, label %.thread56

14:                                               ; preds = %10
  %15 = call i32 @mbedtls_pem_read_buffer(ptr noundef nonnull %8, ptr noundef nonnull @.str.9, ptr noundef nonnull @.str.10, ptr noundef nonnull %1, ptr noundef null, i64 noundef 0, ptr noundef nonnull %7) #9
  switch i32 %15, label %37 [
    i32 0, label %16
    i32 -4224, label %38
  ]

16:                                               ; preds = %14
  %17 = load ptr, ptr %8, align 8, !tbaa !27
  store ptr %17, ptr %6, align 8, !tbaa !7
  %18 = call ptr @mbedtls_pk_info_from_type(i32 noundef 1) #9
  %19 = icmp eq ptr %18, null
  br i1 %19, label %20, label %21

20:                                               ; preds = %16
  call void @mbedtls_pem_free(ptr noundef nonnull %8) #9
  br label %65

21:                                               ; preds = %16
  %22 = call i32 @mbedtls_pk_setup(ptr noundef %0, ptr noundef nonnull %18) #9
  %.not49 = icmp eq i32 %22, 0
  br i1 %.not49, label %24, label %23

23:                                               ; preds = %21
  call void @mbedtls_pem_free(ptr noundef nonnull %8) #9
  br label %65

24:                                               ; preds = %21
  %25 = load ptr, ptr %0, align 8
  %26 = getelementptr inbounds nuw i8, ptr %0, i64 8
  %27 = load ptr, ptr %26, align 8
  call void @llvm.lifetime.start.p0(i64 16, ptr nonnull %5)
  store ptr %25, ptr %5, align 8
  %28 = getelementptr inbounds nuw i8, ptr %5, i64 8
  store ptr %27, ptr %28, align 8
  %29 = call i32 @mbedtls_pk_get_type(ptr noundef nonnull %5) #9
  %cond.i = icmp eq i32 %29, 1
  %30 = load ptr, ptr %28, align 8
  %.0.i = select i1 %cond.i, ptr %30, ptr null
  call void @llvm.lifetime.end.p0(i64 16, ptr nonnull %5)
  %31 = load ptr, ptr %6, align 8, !tbaa !7
  %32 = getelementptr inbounds nuw i8, ptr %8, i64 8
  %33 = load i64, ptr %32, align 8, !tbaa !29
  %34 = call i32 @mbedtls_rsa_parse_pubkey(ptr noundef %.0.i, ptr noundef %31, i64 noundef %33) #9
  %.not50 = icmp eq i32 %34, 0
  br i1 %.not50, label %36, label %35

35:                                               ; preds = %24
  call void @mbedtls_pk_free(ptr noundef nonnull %0) #9
  br label %36

36:                                               ; preds = %35, %24
  call void @mbedtls_pem_free(ptr noundef nonnull %8) #9
  br label %65

37:                                               ; preds = %14
  call void @mbedtls_pem_free(ptr noundef nonnull %8) #9
  br label %65

38:                                               ; preds = %14
  %.pr = load i8, ptr %12, align 1, !tbaa !23
  %.not45 = icmp eq i8 %.pr, 0
  br i1 %.not45, label %39, label %.thread56

39:                                               ; preds = %38
  %40 = call i32 @mbedtls_pem_read_buffer(ptr noundef nonnull %8, ptr noundef nonnull @.str.11, ptr noundef nonnull @.str.12, ptr noundef nonnull %1, ptr noundef null, i64 noundef 0, ptr noundef nonnull %7) #9
  switch i32 %40, label %47 [
    i32 0, label %41
    i32 -4224, label %.thread56
  ]

41:                                               ; preds = %39
  %42 = load ptr, ptr %8, align 8, !tbaa !27
  store ptr %42, ptr %6, align 8, !tbaa !7
  %43 = getelementptr inbounds nuw i8, ptr %8, i64 8
  %44 = load i64, ptr %43, align 8, !tbaa !29
  %45 = getelementptr inbounds nuw i8, ptr %42, i64 %44
  %46 = call i32 @mbedtls_pk_parse_subpubkey(ptr noundef nonnull %6, ptr noundef %45, ptr noundef %0)
  call void @mbedtls_pem_free(ptr noundef nonnull %8) #9
  br label %65

47:                                               ; preds = %39
  call void @mbedtls_pem_free(ptr noundef nonnull %8) #9
  br label %65

.thread56:                                        ; preds = %10, %38, %39
  call void @mbedtls_pem_free(ptr noundef nonnull %8) #9
  %48 = call ptr @mbedtls_pk_info_from_type(i32 noundef 1) #9
  %49 = icmp eq ptr %48, null
  br i1 %49, label %65, label %50

50:                                               ; preds = %.thread56
  %51 = call i32 @mbedtls_pk_setup(ptr noundef %0, ptr noundef nonnull %48) #9
  %.not47 = icmp eq i32 %51, 0
  br i1 %.not47, label %52, label %65

52:                                               ; preds = %50
  store ptr %1, ptr %6, align 8, !tbaa !7
  %53 = load ptr, ptr %0, align 8
  %54 = getelementptr inbounds nuw i8, ptr %0, i64 8
  %55 = load ptr, ptr %54, align 8
  call void @llvm.lifetime.start.p0(i64 16, ptr nonnull %4)
  store ptr %53, ptr %4, align 8
  %56 = getelementptr inbounds nuw i8, ptr %4, i64 8
  store ptr %55, ptr %56, align 8
  %57 = call i32 @mbedtls_pk_get_type(ptr noundef nonnull %4) #9
  %cond.i51 = icmp eq i32 %57, 1
  %58 = load ptr, ptr %56, align 8
  %.0.i52 = select i1 %cond.i51, ptr %58, ptr null
  call void @llvm.lifetime.end.p0(i64 16, ptr nonnull %4)
  %59 = load ptr, ptr %6, align 8, !tbaa !7
  %60 = call i32 @mbedtls_rsa_parse_pubkey(ptr noundef %.0.i52, ptr noundef %59, i64 noundef %2) #9
  %61 = icmp eq i32 %60, 0
  br i1 %61, label %65, label %62

62:                                               ; preds = %52
  call void @mbedtls_pk_free(ptr noundef nonnull %0) #9
  %.not48 = icmp eq i32 %60, -98
  br i1 %.not48, label %63, label %65

63:                                               ; preds = %62
  store ptr %1, ptr %6, align 8, !tbaa !7
  %64 = call i32 @mbedtls_pk_parse_subpubkey(ptr noundef nonnull %6, ptr noundef nonnull %11, ptr noundef nonnull %0)
  br label %65

65:                                               ; preds = %62, %52, %50, %.thread56, %3, %63, %47, %41, %37, %36, %23, %20
  %.036 = phi i32 [ -15488, %20 ], [ %22, %23 ], [ %34, %36 ], [ %15, %37 ], [ %46, %41 ], [ %40, %47 ], [ %64, %63 ], [ -15616, %3 ], [ -15488, %.thread56 ], [ %51, %50 ], [ 0, %52 ], [ %60, %62 ]
  call void @llvm.lifetime.end.p0(i64 24, ptr nonnull %8) #9
  call void @llvm.lifetime.end.p0(i64 8, ptr nonnull %7) #9
  call void @llvm.lifetime.end.p0(i64 8, ptr nonnull %6) #9
  ret i32 %.036
}